target datalayout = "e-m:e-p270:32:32-p271:32:32-p272:64:64-i64:64-i128:128-f80:128-n8:16:32:64-S128"
target triple = "x86_64-pc-linux-gnu"

%struct.utsname = type { [65 x i8], [65 x i8], [65 x i8], [65 x i8], [65 x i8], [65 x i8] }

@.str.8 = private unnamed_addr constant [3 x i8] c"%s\00", align 1
@.str.36 = private unnamed_addr constant [8 x i8] c"uname: \00", align 1
@.str.37 = private unnamed_addr constant [4 x i8] c"%s \00", align 1

; Function Attrs: mustprogress nounwind uwtable
define hidden void @_ZN2os5Posix16print_uname_infoEP12outputStream(ptr noundef %0) #1 align 2 {
  %2 = alloca ptr, align 8
  %3 = alloca %struct.utsname, align 1
  store ptr %0, ptr %2, align 8
  %4 = load ptr, ptr %2, align 8
  call void (ptr, ptr, ...) @_ZN12outputStream5printEPKcz(ptr noundef nonnull align 8 dereferenceable(56) %4, ptr noundef @.str.36)
  %5 = call i32 @uname(ptr noundef %3) #7
  %6 = load ptr, ptr %2, align 8
  %7 = getelementptr inbounds %struct.utsname, ptr %3, i32 0, i32 0
  %8 = getelementptr inbounds [65 x i8], ptr %7, i64 0, i64 0
  call void (ptr, ptr, ...) @_ZN12outputStream5printEPKcz(ptr noundef nonnull align 8 dereferenceable(56) %6, ptr noundef @.str.37, ptr noundef %8)
  %9 = load ptr, ptr %2, align 8
  %10 = getelementptr inbounds %struct.utsname, ptr %3, i32 0, i32 2
  %11 = getelementptr inbounds [65 x i8], ptr %10, i64 0, i64 0
  call void (ptr, ptr, ...) @_ZN12outputStream5printEPKcz(ptr noundef nonnull align 8 dereferenceable(56) %9, ptr noundef @.str.37, ptr noundef %11)
  %12 = load ptr, ptr %2, align 8
  %13 = getelementptr inbounds %struct.utsname, ptr %3, i32 0, i32 3
  %14 = getelementptr inbounds [65 x i8], ptr %13, i64 0, i64 0
  call void (ptr, ptr, ...) @_ZN12outputStream5printEPKcz(ptr noundef nonnull align 8 dereferenceable(56) %12, ptr noundef @.str.37, ptr noundef %14)
  %15 = load ptr, ptr %2, align 8
  %16 = getelementptr inbounds %struct.utsname, ptr %3, i32 0, i32 4
  %17 = getelementptr inbounds [65 x i8], ptr %16, i64 0, i64 0
  call void (ptr, ptr, ...) @_ZN12outputStream5printEPKcz(ptr noundef nonnull align 8 dereferenceable(56) %15, ptr noundef @.str.8, ptr noundef %17)
  %18 = load ptr, ptr %2, align 8
  call void @_ZN12outputStream2crEv(ptr noundef nonnull align 8 dereferenceable(56) %18)
  ret void
}