; Function Attrs: mustprogress nounwind uwtable
define hidden void @_ZN2os5Posix16print_uname_infoEP12outputStream(ptr noundef nonnull %0) local_unnamed_addr #1 align 2 {
  %2 = alloca %struct.utsname, align 1
  tail call void (ptr, ptr, ...) @_ZN12outputStream5printEPKcz(ptr noundef nonnull align 8 dereferenceable(56) %0, ptr noundef nonnull @.str.36) #25
  %3 = call i32 @uname(ptr noundef nonnull %2) #25
  call void (ptr, ptr, ...) @_ZN12outputStream5printEPKcz(ptr noundef nonnull align 8 dereferenceable(56) %0, ptr noundef nonnull @.str.37, ptr noundef nonnull %2) #25
  %4 = getelementptr inbounds i8, ptr %2, i64 130
  call void (ptr, ptr, ...) @_ZN12outputStream5printEPKcz(ptr noundef nonnull align 8 dereferenceable(56) %0, ptr noundef nonnull @.str.37, ptr noundef nonnull %4) #25
  %5 = getelementptr inbounds i8, ptr %2, i64 195
  call void (ptr, ptr, ...) @_ZN12outputStream5printEPKcz(ptr noundef nonnull align 8 dereferenceable(56) %0, ptr noundef nonnull @.str.37, ptr noundef nonnull %5) #25
  %6 = getelementptr inbounds i8, ptr %2, i64 260
  call void (ptr, ptr, ...) @_ZN12outputStream5printEPKcz(ptr noundef nonnull align 8 dereferenceable(56) %0, ptr noundef nonnull @.str.8, ptr noundef nonnull %6) #25
  call void @_ZN12outputStream2crEv(ptr noundef nonnull align 8 dereferenceable(56) %0) #25
  ret void
}